(dp0
S'prodrun'
p1
S'1121p'
p2
sS'teststand'
p3
S'A'
p4
sS'tester'
p5
S'james'
p6
sS'serial'
p7
S'50045D396E14E3'
p8
sS't1'
p9
F1306802689.8596671
sS'flashid'
p10
S'0A0C0C121E111F2300003900FFFF62FF30304D323435373302273DFFFFFFFFFFFFFFFFFFFFFFFFFFFFFFFFFFFFFFFFFFFFFFFFFFFFFFFFFFFFFFFFFFFFFFFFFF'
p11
sS't0'
p12
F1306802683.366771
sS'revision'
p13
S'10'
p14
s.