(dp0
S'prodrun'
p1
S'1121p'
p2
sS'teststand'
p3
S'A'
p4
sS'tester'
p5
S'james'
p6
sS'serial'
p7
S'500558FF7E3777'
p8
sS't1'
p9
F1307115610.781733
sS'flashid'
p10
S'00000000000000000000000000000000000000000000000000000000000000000000000000000000000000000000000000000000000000000000000000000000'
p11
sS't0'
p12
F1307115603.5972459
sS'revision'
p13
S'10'
p14
s.